; Function Attrs: nounwind uwtable
define hidden void @_glfwDestroyCursorX11(ptr noundef readonly captures(none) %0) local_unnamed_addr #0 {
  %2 = getelementptr inbounds nuw i8, ptr %0, i64 56
  %3 = load i64, ptr %2, align 8, !tbaa !315
  %.not = icmp eq i64 %3, 0
  br i1 %.not, label %8, label %4

4:                                                ; preds = %1
  %5 = load ptr, ptr getelementptr inbounds nuw (i8, ptr @_glfw, i64 141568), align 8, !tbaa !425
  %6 = load ptr, ptr getelementptr inbounds nuw (i8, ptr @_glfw, i64 137840), align 8, !tbaa !93
  %7 = tail call i32 %5(ptr noundef %6, i64 noundef %3) #17
  br label %8

8:                                                ; preds = %4, %1
  ret void
}